target datalayout = "e-m:e-p270:32:32-p271:32:32-p272:64:64-i64:64-i128:128-f80:128-n8:16:32:64-S128"
target triple = "x86_64-pc-linux-gnu"

%struct._lv_fragment_manager_t = type { ptr, %struct.lv_ll_t, %struct.lv_ll_t }
%struct.lv_ll_t = type { i32, ptr, ptr }
%struct._lv_fragment_managed_states_t = type { ptr, ptr, ptr, ptr, i8, i8, i8 }
%struct._lv_fragment_t = type { ptr, ptr, ptr, ptr }
%struct._lv_fragment_class_t = type { ptr, ptr, ptr, ptr, ptr, ptr, ptr, ptr, ptr, i64 }
%struct._lv_fragment_stack_item_t = type { ptr }

; Function Attrs: nounwind uwtable
define internal void @item_create_obj(ptr noundef %0) #0 {
  %2 = alloca ptr, align 8
  store ptr %0, ptr %2, align 8, !tbaa !3
  br label %3

3:                                                ; preds = %1
  %4 = load ptr, ptr %2, align 8, !tbaa !3
  %5 = getelementptr inbounds nuw %struct._lv_fragment_managed_states_t, ptr %4, i32 0, i32 3
  %6 = load ptr, ptr %5, align 8, !tbaa !13
  %7 = icmp ne ptr %6, null
  br i1 %7, label %12, label %8

8:                                                ; preds = %3
  br label %9

9:                                                ; preds = %8
  br label %10

10:                                               ; preds = %9
  br label %11

11:                                               ; preds = %10, %11
  br label %11

12:                                               ; preds = %3
  br label %13

13:                                               ; preds = %12
  %14 = load ptr, ptr %2, align 8, !tbaa !3
  %15 = getelementptr inbounds nuw %struct._lv_fragment_managed_states_t, ptr %14, i32 0, i32 3
  %16 = load ptr, ptr %15, align 8, !tbaa !13
  %17 = load ptr, ptr %2, align 8, !tbaa !3
  %18 = getelementptr inbounds nuw %struct._lv_fragment_managed_states_t, ptr %17, i32 0, i32 2
  %19 = load ptr, ptr %18, align 8, !tbaa !28
  %20 = icmp ne ptr %19, null
  br i1 %20, label %21, label %26

21:                                               ; preds = %13
  %22 = load ptr, ptr %2, align 8, !tbaa !3
  %23 = getelementptr inbounds nuw %struct._lv_fragment_managed_states_t, ptr %22, i32 0, i32 2
  %24 = load ptr, ptr %23, align 8, !tbaa !28
  %25 = load ptr, ptr %24, align 8, !tbaa !3
  br label %27

26:                                               ; preds = %13
  br label %27

27:                                               ; preds = %26, %21
  %28 = phi ptr [ %25, %21 ], [ null, %26 ]
  %29 = call ptr @lv_fragment_create_obj(ptr noundef %16, ptr noundef %28)
  ret void
}

; Function Attrs: nounwind uwtable
define internal void @item_delete_fragment(ptr noundef %0) #0 {
  %2 = alloca ptr, align 8
  %3 = alloca ptr, align 8
  store ptr %0, ptr %2, align 8, !tbaa !3
  call void @llvm.lifetime.start.p0(i64 8, ptr %3) #4
  %4 = load ptr, ptr %2, align 8, !tbaa !3
  %5 = getelementptr inbounds nuw %struct._lv_fragment_managed_states_t, ptr %4, i32 0, i32 3
  %6 = load ptr, ptr %5, align 8, !tbaa !13
  store ptr %6, ptr %3, align 8, !tbaa !3
  %7 = load ptr, ptr %3, align 8, !tbaa !3
  %8 = getelementptr inbounds nuw %struct._lv_fragment_t, ptr %7, i32 0, i32 0
  %9 = load ptr, ptr %8, align 8, !tbaa !16
  %10 = getelementptr inbounds nuw %struct._lv_fragment_class_t, ptr %9, i32 0, i32 3
  %11 = load ptr, ptr %10, align 8, !tbaa !18
  %12 = icmp ne ptr %11, null
  br i1 %12, label %13, label %20

13:                                               ; preds = %1
  %14 = load ptr, ptr %3, align 8, !tbaa !3
  %15 = getelementptr inbounds nuw %struct._lv_fragment_t, ptr %14, i32 0, i32 0
  %16 = load ptr, ptr %15, align 8, !tbaa !16
  %17 = getelementptr inbounds nuw %struct._lv_fragment_class_t, ptr %16, i32 0, i32 3
  %18 = load ptr, ptr %17, align 8, !tbaa !18
  %19 = load ptr, ptr %3, align 8, !tbaa !3
  call void %18(ptr noundef %19)
  br label %20

20:                                               ; preds = %13, %1
  %21 = load ptr, ptr %3, align 8, !tbaa !3
  %22 = getelementptr inbounds nuw %struct._lv_fragment_t, ptr %21, i32 0, i32 1
  store ptr null, ptr %22, align 8, !tbaa !21
  %23 = load ptr, ptr %3, align 8, !tbaa !3
  call void @lv_fragment_delete(ptr noundef %23)
  %24 = load ptr, ptr %2, align 8, !tbaa !3
  %25 = getelementptr inbounds nuw %struct._lv_fragment_managed_states_t, ptr %24, i32 0, i32 3
  store ptr null, ptr %25, align 8, !tbaa !13
  call void @llvm.lifetime.end.p0(i64 8, ptr %3) #4
  ret void
}

; Function Attrs: nounwind uwtable
define internal void @item_delete_obj(ptr noundef %0) #0 {
  %2 = alloca ptr, align 8
  store ptr %0, ptr %2, align 8, !tbaa !3
  %3 = load ptr, ptr %2, align 8, !tbaa !3
  %4 = getelementptr inbounds nuw %struct._lv_fragment_managed_states_t, ptr %3, i32 0, i32 3
  %5 = load ptr, ptr %4, align 8, !tbaa !13
  call void @lv_fragment_delete_obj(ptr noundef %5)
  ret void
}

; Function Attrs: nounwind uwtable
define void @lv_fragment_manager_remove(ptr noundef %0, ptr noundef %1) #0 {
  %3 = alloca ptr, align 8
  %4 = alloca ptr, align 8
  %5 = alloca ptr, align 8
  %6 = alloca ptr, align 8
  %7 = alloca i8, align 1
  %8 = alloca ptr, align 8
  %9 = alloca ptr, align 8
  %10 = alloca ptr, align 8
  %11 = alloca i32, align 4
  store ptr %0, ptr %3, align 8, !tbaa !3
  store ptr %1, ptr %4, align 8, !tbaa !3
  br label %12

12:                                               ; preds = %2
  %13 = load ptr, ptr %3, align 8, !tbaa !3
  %14 = icmp ne ptr %13, null
  br i1 %14, label %19, label %15

15:                                               ; preds = %12
  br label %16

16:                                               ; preds = %15
  br label %17

17:                                               ; preds = %16
  br label %18

18:                                               ; preds = %17, %18
  br label %18

19:                                               ; preds = %12
  br label %20

20:                                               ; preds = %19
  br label %21

21:                                               ; preds = %20
  %22 = load ptr, ptr %4, align 8, !tbaa !3
  %23 = icmp ne ptr %22, null
  br i1 %23, label %28, label %24

24:                                               ; preds = %21
  br label %25

25:                                               ; preds = %24
  br label %26

26:                                               ; preds = %25
  br label %27

27:                                               ; preds = %26, %27
  br label %27

28:                                               ; preds = %21
  br label %29

29:                                               ; preds = %28
  br label %30

30:                                               ; preds = %29
  %31 = load ptr, ptr %4, align 8, !tbaa !3
  %32 = getelementptr inbounds nuw %struct._lv_fragment_t, ptr %31, i32 0, i32 1
  %33 = load ptr, ptr %32, align 8, !tbaa !21
  %34 = icmp ne ptr %33, null
  br i1 %34, label %39, label %35

35:                                               ; preds = %30
  br label %36

36:                                               ; preds = %35
  br label %37

37:                                               ; preds = %36
  br label %38

38:                                               ; preds = %37, %38
  br label %38

39:                                               ; preds = %30
  br label %40

40:                                               ; preds = %39
  br label %41

41:                                               ; preds = %40
  %42 = load ptr, ptr %4, align 8, !tbaa !3
  %43 = getelementptr inbounds nuw %struct._lv_fragment_t, ptr %42, i32 0, i32 1
  %44 = load ptr, ptr %43, align 8, !tbaa !21
  %45 = getelementptr inbounds nuw %struct._lv_fragment_managed_states_t, ptr %44, i32 0, i32 1
  %46 = load ptr, ptr %45, align 8, !tbaa !32
  %47 = load ptr, ptr %3, align 8, !tbaa !3
  %48 = icmp eq ptr %46, %47
  br i1 %48, label %53, label %49

49:                                               ; preds = %41
  br label %50

50:                                               ; preds = %49
  br label %51

51:                                               ; preds = %50
  br label %52

52:                                               ; preds = %51, %52
  br label %52

53:                                               ; preds = %41
  br label %54

54:                                               ; preds = %53
  call void @llvm.lifetime.start.p0(i64 8, ptr %5) #4
  %55 = load ptr, ptr %4, align 8, !tbaa !3
  %56 = getelementptr inbounds nuw %struct._lv_fragment_t, ptr %55, i32 0, i32 1
  %57 = load ptr, ptr %56, align 8, !tbaa !21
  store ptr %57, ptr %5, align 8, !tbaa !3
  call void @llvm.lifetime.start.p0(i64 8, ptr %6) #4
  store ptr null, ptr %6, align 8, !tbaa !3
  call void @llvm.lifetime.start.p0(i64 1, ptr %7) #4
  store i8 0, ptr %7, align 1, !tbaa !34
  %58 = load ptr, ptr %5, align 8, !tbaa !3
  %59 = getelementptr inbounds nuw %struct._lv_fragment_managed_states_t, ptr %58, i32 0, i32 6
  %60 = load i8, ptr %59, align 2, !tbaa !22, !range !23, !noundef !24
  %61 = trunc i8 %60 to i1
  br i1 %61, label %62, label %110

62:                                               ; preds = %54
  call void @llvm.lifetime.start.p0(i64 8, ptr %8) #4
  %63 = load ptr, ptr %3, align 8, !tbaa !3
  %64 = getelementptr inbounds nuw %struct._lv_fragment_manager_t, ptr %63, i32 0, i32 2
  %65 = call ptr @lv_ll_get_tail(ptr noundef %64)
  store ptr %65, ptr %8, align 8, !tbaa !3
  call void @llvm.lifetime.start.p0(i64 8, ptr %9) #4
  store ptr null, ptr %9, align 8, !tbaa !3
  %66 = load ptr, ptr %3, align 8, !tbaa !3
  %67 = getelementptr inbounds nuw %struct._lv_fragment_manager_t, ptr %66, i32 0, i32 2
  %68 = call ptr @lv_ll_get_tail(ptr noundef %67)
  store ptr %68, ptr %9, align 8, !tbaa !3
  br label %69

69:                                               ; preds = %96, %62
  %70 = load ptr, ptr %9, align 8, !tbaa !3
  %71 = icmp ne ptr %70, null
  br i1 %71, label %72, label %101

72:                                               ; preds = %69
  %73 = load ptr, ptr %9, align 8, !tbaa !3
  %74 = getelementptr inbounds nuw %struct._lv_fragment_stack_item_t, ptr %73, i32 0, i32 0
  %75 = load ptr, ptr %74, align 8, !tbaa !25
  %76 = load ptr, ptr %5, align 8, !tbaa !3
  %77 = icmp eq ptr %75, %76
  br i1 %77, label %78, label %95

78:                                               ; preds = %72
  %79 = load ptr, ptr %8, align 8, !tbaa !3
  %80 = load ptr, ptr %9, align 8, !tbaa !3
  %81 = icmp eq ptr %79, %80
  %82 = zext i1 %81 to i8
  store i8 %82, ptr %7, align 1, !tbaa !34
  call void @llvm.lifetime.start.p0(i64 8, ptr %10) #4
  %83 = load ptr, ptr %3, align 8, !tbaa !3
  %84 = getelementptr inbounds nuw %struct._lv_fragment_manager_t, ptr %83, i32 0, i32 2
  %85 = load ptr, ptr %9, align 8, !tbaa !3
  %86 = call ptr @lv_ll_get_prev(ptr noundef %84, ptr noundef %85)
  store ptr %86, ptr %10, align 8, !tbaa !3
  %87 = load ptr, ptr %10, align 8, !tbaa !3
  %88 = icmp ne ptr %87, null
  br i1 %88, label %90, label %89

89:                                               ; preds = %78
  store i32 26, ptr %11, align 4
  br label %94

90:                                               ; preds = %78
  %91 = load ptr, ptr %10, align 8, !tbaa !3
  %92 = getelementptr inbounds nuw %struct._lv_fragment_stack_item_t, ptr %91, i32 0, i32 0
  %93 = load ptr, ptr %92, align 8, !tbaa !25
  store ptr %93, ptr %6, align 8, !tbaa !3
  store i32 26, ptr %11, align 4
  br label %94

94:                                               ; preds = %90, %89
  call void @llvm.lifetime.end.p0(i64 8, ptr %10) #4
  br label %101

95:                                               ; preds = %72
  br label %96

96:                                               ; preds = %95
  %97 = load ptr, ptr %3, align 8, !tbaa !3
  %98 = getelementptr inbounds nuw %struct._lv_fragment_manager_t, ptr %97, i32 0, i32 2
  %99 = load ptr, ptr %9, align 8, !tbaa !3
  %100 = call ptr @lv_ll_get_prev(ptr noundef %98, ptr noundef %99)
  store ptr %100, ptr %9, align 8, !tbaa !3
  br label %69, !llvm.loop !35

101:                                              ; preds = %94, %69
  %102 = load ptr, ptr %9, align 8, !tbaa !3
  %103 = icmp ne ptr %102, null
  br i1 %103, label %104, label %109

104:                                              ; preds = %101
  %105 = load ptr, ptr %3, align 8, !tbaa !3
  %106 = getelementptr inbounds nuw %struct._lv_fragment_manager_t, ptr %105, i32 0, i32 2
  %107 = load ptr, ptr %9, align 8, !tbaa !3
  call void @lv_ll_remove(ptr noundef %106, ptr noundef %107)
  %108 = load ptr, ptr %9, align 8, !tbaa !3
  call void @lv_free(ptr noundef %108)
  br label %109

109:                                              ; preds = %104, %101
  call void @llvm.lifetime.end.p0(i64 8, ptr %9) #4
  call void @llvm.lifetime.end.p0(i64 8, ptr %8) #4
  br label %110

110:                                              ; preds = %109, %54
  %111 = load ptr, ptr %5, align 8, !tbaa !3
  call void @item_delete_obj(ptr noundef %111)
  %112 = load ptr, ptr %5, align 8, !tbaa !3
  call void @item_delete_fragment(ptr noundef %112)
  %113 = load ptr, ptr %3, align 8, !tbaa !3
  %114 = getelementptr inbounds nuw %struct._lv_fragment_manager_t, ptr %113, i32 0, i32 1
  %115 = load ptr, ptr %5, align 8, !tbaa !3
  call void @lv_ll_remove(ptr noundef %114, ptr noundef %115)
  %116 = load ptr, ptr %5, align 8, !tbaa !3
  call void @lv_free(ptr noundef %116)
  %117 = load ptr, ptr %6, align 8, !tbaa !3
  %118 = icmp ne ptr %117, null
  br i1 %118, label %119, label %124

119:                                              ; preds = %110
  %120 = load i8, ptr %7, align 1, !tbaa !34, !range !23, !noundef !24
  %121 = trunc i8 %120 to i1
  br i1 %121, label %122, label %124

122:                                              ; preds = %119
  %123 = load ptr, ptr %6, align 8, !tbaa !3
  call void @item_create_obj(ptr noundef %123)
  br label %124

124:                                              ; preds = %122, %119, %110
  call void @llvm.lifetime.end.p0(i64 1, ptr %7) #4
  call void @llvm.lifetime.end.p0(i64 8, ptr %6) #4
  call void @llvm.lifetime.end.p0(i64 8, ptr %5) #4
  ret void
}