; Function Attrs: nounwind uwtable
define void @lv_fragment_manager_remove(ptr noundef %0, ptr noundef readonly %1) local_unnamed_addr #0 {
  %.not = icmp eq ptr %0, null
  br i1 %.not, label %.preheader, label %3

.preheader:                                       ; preds = %2, %.preheader
  br label %.preheader

3:                                                ; preds = %2
  %.not38 = icmp eq ptr %1, null
  br i1 %.not38, label %.preheader48, label %4

.preheader48:                                     ; preds = %3, %.preheader48
  br label %.preheader48

4:                                                ; preds = %3
  %5 = getelementptr inbounds nuw i8, ptr %1, i64 8
  %6 = load ptr, ptr %5, align 8, !tbaa !18
  %.not39 = icmp eq ptr %6, null
  br i1 %.not39, label %.preheader49, label %7

.preheader49:                                     ; preds = %4, %.preheader49
  br label %.preheader49

7:                                                ; preds = %4
  %8 = getelementptr inbounds nuw i8, ptr %6, i64 8
  %9 = load ptr, ptr %8, align 8, !tbaa !31
  %10 = icmp eq ptr %9, %0
  br i1 %10, label %11, label %.preheader50

.preheader50:                                     ; preds = %7, %.preheader50
  br label %.preheader50

11:                                               ; preds = %7
  %12 = getelementptr inbounds nuw i8, ptr %6, i64 34
  %13 = load i8, ptr %12, align 2, !tbaa !21, !range !22, !noundef !23
  %14 = trunc nuw i8 %13 to i1
  br i1 %14, label %15, label %.loopexit

15:                                               ; preds = %11
  %16 = getelementptr inbounds nuw i8, ptr %0, i64 32
  %17 = tail call ptr @lv_ll_get_tail(ptr noundef nonnull %16) #3
  %18 = tail call ptr @lv_ll_get_tail(ptr noundef nonnull %16) #3
  %.not4052 = icmp eq ptr %18, null
  br i1 %.not4052, label %.loopexit, label %.lr.ph

.lr.ph:                                           ; preds = %15, %26
  %.03153 = phi ptr [ %27, %26 ], [ %18, %15 ]
  %19 = load ptr, ptr %.03153, align 8, !tbaa !24
  %20 = icmp eq ptr %19, %6
  br i1 %20, label %21, label %26

21:                                               ; preds = %.lr.ph
  %22 = icmp ne ptr %17, %.03153
  %23 = tail call ptr @lv_ll_get_prev(ptr noundef nonnull %16, ptr noundef nonnull %.03153) #3
  %.not41 = icmp eq ptr %23, null
  br i1 %.not41, label %28, label %24

24:                                               ; preds = %21
  %25 = load ptr, ptr %23, align 8, !tbaa !24
  br label %28

26:                                               ; preds = %.lr.ph
  %27 = tail call ptr @lv_ll_get_prev(ptr noundef nonnull %16, ptr noundef nonnull %.03153) #3
  %.not40 = icmp eq ptr %27, null
  br i1 %.not40, label %.loopexit, label %.lr.ph, !llvm.loop !34

28:                                               ; preds = %24, %21
  %.1.ph = phi ptr [ null, %21 ], [ %25, %24 ]
  tail call void @lv_ll_remove(ptr noundef nonnull %16, ptr noundef nonnull %.03153) #3
  tail call void @lv_free(ptr noundef nonnull %.03153) #3
  br label %.loopexit

.loopexit:                                        ; preds = %26, %15, %28, %11
  %.032 = phi i1 [ true, %11 ], [ %22, %28 ], [ true, %15 ], [ true, %26 ]
  %.0 = phi ptr [ null, %11 ], [ %.1.ph, %28 ], [ null, %15 ], [ null, %26 ]
  %29 = getelementptr i8, ptr %6, i64 24
  %.val = load ptr, ptr %29, align 8, !tbaa !10
  tail call void @lv_fragment_delete_obj(ptr noundef %.val) #3
  %30 = load ptr, ptr %29, align 8, !tbaa !10
  %31 = load ptr, ptr %30, align 8, !tbaa !13
  %32 = getelementptr inbounds nuw i8, ptr %31, i64 24
  %33 = load ptr, ptr %32, align 8, !tbaa !15
  %.not.i = icmp eq ptr %33, null
  br i1 %.not.i, label %item_delete_fragment.exit, label %34

34:                                               ; preds = %.loopexit
  tail call void %33(ptr noundef nonnull %30) #3
  br label %item_delete_fragment.exit

item_delete_fragment.exit:                        ; preds = %.loopexit, %34
  %35 = getelementptr inbounds nuw i8, ptr %30, i64 8
  store ptr null, ptr %35, align 8, !tbaa !18
  tail call void @lv_fragment_delete(ptr noundef nonnull %30) #3
  store ptr null, ptr %29, align 8, !tbaa !10
  %36 = getelementptr inbounds nuw i8, ptr %0, i64 8
  tail call void @lv_ll_remove(ptr noundef nonnull %36, ptr noundef nonnull %6) #3
  tail call void @lv_free(ptr noundef nonnull %6) #3
  %.not42 = icmp eq ptr %.0, null
  %brmerge = select i1 %.not42, i1 true, i1 %.032
  br i1 %brmerge, label %47, label %37

37:                                               ; preds = %item_delete_fragment.exit
  %38 = getelementptr inbounds nuw i8, ptr %.0, i64 24
  %39 = load ptr, ptr %38, align 8, !tbaa !10
  %.not.i43 = icmp eq ptr %39, null
  br i1 %.not.i43, label %.preheader.i, label %40

.preheader.i:                                     ; preds = %37, %.preheader.i
  br label %.preheader.i

40:                                               ; preds = %37
  %41 = getelementptr inbounds nuw i8, ptr %.0, i64 16
  %42 = load ptr, ptr %41, align 8, !tbaa !26
  %.not5.i = icmp eq ptr %42, null
  br i1 %.not5.i, label %item_create_obj.exit, label %43

43:                                               ; preds = %40
  %44 = load ptr, ptr %42, align 8, !tbaa !27
  br label %item_create_obj.exit

item_create_obj.exit:                             ; preds = %40, %43
  %45 = phi ptr [ %44, %43 ], [ null, %40 ]
  %46 = tail call ptr @lv_fragment_create_obj(ptr noundef nonnull %39, ptr noundef %45) #3
  br label %47

47:                                               ; preds = %item_delete_fragment.exit, %item_create_obj.exit
  ret void
}